target datalayout = "e-m:e-p270:32:32-p271:32:32-p272:64:64-i64:64-i128:128-f80:128-n8:16:32:64-S128"
target triple = "x86_64-pc-linux-gnu"

%"class.std::vector" = type { %"struct.std::_Vector_base" }
%"struct.std::_Vector_base" = type { %"struct.std::_Vector_base<int, std::allocator<int>>::_Vector_impl" }
%"struct.std::_Vector_base<int, std::allocator<int>>::_Vector_impl" = type { %"struct.std::_Vector_base<int, std::allocator<int>>::_Vector_impl_data" }
%"struct.std::_Vector_base<int, std::allocator<int>>::_Vector_impl_data" = type { ptr, ptr, ptr }
%"class.gmx::BiasSharing" = type { %"class.std::vector", %"class.std::vector", ptr, %"class.std::vector.0", %"class.std::vector.0" }
%"class.std::vector.0" = type { %"struct.std::_Vector_base.1" }
%"struct.std::_Vector_base.1" = type { %"struct.std::_Vector_base<tmpi_comm_ *, std::allocator<tmpi_comm_ *>>::_Vector_impl" }
%"struct.std::_Vector_base<tmpi_comm_ *, std::allocator<tmpi_comm_ *>>::_Vector_impl" = type { %"struct.std::_Vector_base<tmpi_comm_ *, std::allocator<tmpi_comm_ *>>::_Vector_impl_data" }
%"struct.std::_Vector_base<tmpi_comm_ *, std::allocator<tmpi_comm_ *>>::_Vector_impl_data" = type { ptr, ptr, ptr }
%struct.t_commrec = type <{ i8, [3 x i8], i32, i32, i32, i32, [4 x i8], ptr, ptr, i32, [4 x i8], ptr, i32, i32, %struct.gmx_nodecomm_t, %"class.std::unique_ptr", %"class.std::unique_ptr.7", ptr, ptr, i32, [4 x i8] }>
%struct.gmx_nodecomm_t = type { i8, ptr, i32, ptr }
%"class.std::unique_ptr" = type { %"struct.std::__uniq_ptr_data" }
%"struct.std::__uniq_ptr_data" = type { %"class.std::__uniq_ptr_impl" }
%"class.std::__uniq_ptr_impl" = type { %"class.std::tuple" }
%"class.std::tuple" = type { %"struct.std::_Tuple_impl" }
%"struct.std::_Tuple_impl" = type { %"struct.std::_Head_base.6" }
%"struct.std::_Head_base.6" = type { ptr }
%"class.std::unique_ptr.7" = type { %"struct.std::__uniq_ptr_data.8" }
%"struct.std::__uniq_ptr_data.8" = type { %"class.std::__uniq_ptr_impl.9" }
%"class.std::__uniq_ptr_impl.9" = type { %"class.std::tuple.10" }
%"class.std::tuple.10" = type { %"struct.std::_Tuple_impl.11" }
%"struct.std::_Tuple_impl.11" = type { %"struct.std::_Head_base.14" }
%"struct.std::_Head_base.14" = type { ptr }
%"class.gmx::ArrayRef.54" = type { %"struct.gmx::ArrayRefIter.55", %"struct.gmx::ArrayRefIter.55" }
%"struct.gmx::ArrayRefIter.55" = type { ptr }

@TMPI_DOUBLE = external constant ptr, align 8

; Function Attrs: mustprogress nounwind uwtable
define linkonce_odr noundef i64 @_ZNK3gmx12ArrayRefIterIdEmiES1_(ptr noundef nonnull align 8 dereferenceable(8) %0, ptr %1) #1 comdat align 2 {
  %3 = alloca %"struct.gmx::ArrayRefIter.55", align 8
  %4 = alloca ptr, align 8
  %5 = getelementptr inbounds nuw %"struct.gmx::ArrayRefIter.55", ptr %3, i32 0, i32 0
  store ptr %1, ptr %5, align 8
  store ptr %0, ptr %4, align 8, !tbaa !356
  %6 = load ptr, ptr %4, align 8
  %7 = getelementptr inbounds nuw %"struct.gmx::ArrayRefIter.55", ptr %6, i32 0, i32 0
  %8 = load ptr, ptr %7, align 8, !tbaa !358
  %9 = getelementptr inbounds nuw %"struct.gmx::ArrayRefIter.55", ptr %3, i32 0, i32 0
  %10 = load ptr, ptr %9, align 8, !tbaa !358
  %11 = ptrtoint ptr %8 to i64
  %12 = ptrtoint ptr %10 to i64
  %13 = sub i64 %11, %12
  %14 = sdiv exact i64 %13, 8
  ret i64 %14
}

; Function Attrs: mustprogress nounwind uwtable
define linkonce_odr noundef ptr @_ZNK3gmx12ArrayRefIterIdE4dataEv(ptr noundef nonnull align 8 dereferenceable(8) %0) #1 comdat align 2 {
  %2 = alloca ptr, align 8
  store ptr %0, ptr %2, align 8, !tbaa !356
  %3 = load ptr, ptr %2, align 8
  %4 = getelementptr inbounds nuw %"struct.gmx::ArrayRefIter.55", ptr %3, i32 0, i32 0
  %5 = load ptr, ptr %4, align 8, !tbaa !358
  ret ptr %5
}

; Function Attrs: mustprogress nounwind uwtable
define internal noundef ptr @_ZN3gmx12_GLOBAL__N_17mpiTypeIdEENSt9enable_ifIXsr3stdE9is_same_vIT_dEEP14tmpi_datatype_E4typeEv() #1 {
  %1 = load ptr, ptr @TMPI_DOUBLE, align 8, !tbaa !45
  ret ptr %1
}

; Function Attrs: mustprogress nounwind uwtable
define linkonce_odr noundef i64 @_ZNK3gmx8ArrayRefIdE4sizeEv(ptr noundef nonnull align 8 dereferenceable(16) %0) #1 comdat align 2 {
  %2 = alloca ptr, align 8
  %3 = alloca %"struct.gmx::ArrayRefIter.55", align 8
  store ptr %0, ptr %2, align 8, !tbaa !354
  %4 = load ptr, ptr %2, align 8
  %5 = getelementptr inbounds nuw %"class.gmx::ArrayRef.54", ptr %4, i32 0, i32 1
  %6 = getelementptr inbounds nuw %"class.gmx::ArrayRef.54", ptr %4, i32 0, i32 0
  call void @llvm.memcpy.p0.p0.i64(ptr align 8 %3, ptr align 8 %6, i64 8, i1 false)
  %7 = getelementptr inbounds nuw %"struct.gmx::ArrayRefIter.55", ptr %3, i32 0, i32 0
  %8 = load ptr, ptr %7, align 8
  %9 = call noundef i64 @_ZNK3gmx12ArrayRefIterIdEmiES1_(ptr noundef nonnull align 8 dereferenceable(8) %5, ptr %8) #18
  ret i64 %9
}

; Function Attrs: mustprogress nounwind uwtable
define linkonce_odr void @_ZN3gmx12ArrayRefIterIdEC2EPd(ptr noundef nonnull align 8 dereferenceable(8) %0, ptr noundef %1) unnamed_addr #1 comdat align 2 {
  %3 = alloca ptr, align 8
  %4 = alloca ptr, align 8
  store ptr %0, ptr %3, align 8, !tbaa !356
  store ptr %1, ptr %4, align 8, !tbaa !361
  %5 = load ptr, ptr %3, align 8
  %6 = getelementptr inbounds nuw %"struct.gmx::ArrayRefIter.55", ptr %5, i32 0, i32 0
  %7 = load ptr, ptr %4, align 8, !tbaa !361
  store ptr %7, ptr %6, align 8, !tbaa !358
  ret void
}

; Function Attrs: mustprogress nounwind uwtable
define linkonce_odr noundef ptr @_ZNK3gmx8ArrayRefIdE4dataEv(ptr noundef nonnull align 8 dereferenceable(16) %0) #1 comdat align 2 {
  %2 = alloca ptr, align 8
  store ptr %0, ptr %2, align 8, !tbaa !354
  %3 = load ptr, ptr %2, align 8
  %4 = getelementptr inbounds nuw %"class.gmx::ArrayRef.54", ptr %3, i32 0, i32 0
  %5 = call noundef ptr @_ZNK3gmx12ArrayRefIterIdE4dataEv(ptr noundef nonnull align 8 dereferenceable(8) %4) #18
  ret ptr %5
}

; Function Attrs: mustprogress uwtable
define linkonce_odr void @_ZN3gmx18sumOverSimulationsIdEEvNS_8ArrayRefIT_EEP10tmpi_comm_bRK9t_commrec(ptr %0, ptr %1, ptr noundef %2, i1 noundef zeroext %3, ptr noundef nonnull align 8 dereferenceable(132) %4) #0 comdat {
  %6 = alloca %"class.gmx::ArrayRef.54", align 8
  %7 = alloca ptr, align 8
  %8 = alloca i8, align 1
  %9 = alloca ptr, align 8
  %10 = getelementptr inbounds nuw { ptr, ptr }, ptr %6, i32 0, i32 0
  store ptr %0, ptr %10, align 8
  %11 = getelementptr inbounds nuw { ptr, ptr }, ptr %6, i32 0, i32 1
  store ptr %1, ptr %11, align 8
  store ptr %2, ptr %7, align 8, !tbaa !13
  %12 = zext i1 %3 to i8
  store i8 %12, ptr %8, align 1, !tbaa !134
  store ptr %4, ptr %9, align 8, !tbaa !11
  %13 = load ptr, ptr %9, align 8, !tbaa !11
  %14 = getelementptr inbounds nuw %struct.t_commrec, ptr %13, i32 0, i32 13
  %15 = load i32, ptr %14, align 4, !tbaa !15
  %16 = icmp eq i32 %15, 0
  br i1 %16, label %22, label %17

17:                                               ; preds = %5
  %18 = load ptr, ptr %9, align 8, !tbaa !11
  %19 = getelementptr inbounds nuw %struct.t_commrec, ptr %18, i32 0, i32 12
  %20 = load i32, ptr %19, align 8, !tbaa !34
  %21 = icmp sgt i32 %20, 1
  br i1 %21, label %29, label %22

22:                                               ; preds = %17, %5
  %23 = call noundef ptr @_ZNK3gmx8ArrayRefIdE4dataEv(ptr noundef nonnull align 8 dereferenceable(16) %6)
  %24 = call noundef i64 @_ZNK3gmx8ArrayRefIdE4sizeEv(ptr noundef nonnull align 8 dereferenceable(16) %6)
  %25 = trunc i64 %24 to i32
  %26 = call noundef ptr @_ZN3gmx12_GLOBAL__N_17mpiTypeIdEENSt9enable_ifIXsr3stdE9is_same_vIT_dEEP14tmpi_datatype_E4typeEv()
  %27 = load ptr, ptr %7, align 8, !tbaa !13
  %28 = call noundef i32 @_Z14tMPI_AllreducePKvPviP14tmpi_datatype_7tMPI_OpP10tmpi_comm_(ptr noundef null, ptr noundef %23, i32 noundef %25, ptr noundef %26, i32 noundef 2, ptr noundef %27)
  br label %29

29:                                               ; preds = %22, %17
  %30 = load i8, ptr %8, align 1, !tbaa !134, !range !295, !noundef !296
  %31 = trunc i8 %30 to i1
  br i1 %31, label %32, label %44

32:                                               ; preds = %29
  %33 = load ptr, ptr %9, align 8, !tbaa !11
  %34 = getelementptr inbounds nuw %struct.t_commrec, ptr %33, i32 0, i32 9
  %35 = load i32, ptr %34, align 8, !tbaa !44
  %36 = icmp sgt i32 %35, 1
  br i1 %36, label %37, label %44

37:                                               ; preds = %32
  %38 = call noundef i64 @_ZNK3gmx8ArrayRefIdE4sizeEv(ptr noundef nonnull align 8 dereferenceable(16) %6)
  %39 = mul i64 %38, 8
  %40 = call noundef ptr @_ZNK3gmx8ArrayRefIdE4dataEv(ptr noundef nonnull align 8 dereferenceable(16) %6)
  %41 = load ptr, ptr %9, align 8, !tbaa !11
  %42 = getelementptr inbounds nuw %struct.t_commrec, ptr %41, i32 0, i32 8
  %43 = load ptr, ptr %42, align 8, !tbaa !47
  call void @_Z9gmx_bcastmPvP10tmpi_comm_(i64 noundef %39, ptr noundef %40, ptr noundef %43)
  br label %44

44:                                               ; preds = %37, %32, %29
  ret void
}

; Function Attrs: mustprogress nounwind uwtable
define linkonce_odr noundef nonnull align 8 dereferenceable(8) ptr @_ZNKSt6vectorIP10tmpi_comm_SaIS1_EEixEm(ptr noundef nonnull align 8 dereferenceable(24) %0, i64 noundef %1) #1 comdat align 2 {
  %3 = alloca ptr, align 8
  %4 = alloca i64, align 8
  store ptr %0, ptr %3, align 8, !tbaa !50
  store i64 %1, ptr %4, align 8, !tbaa !42
  %5 = load ptr, ptr %3, align 8
  %6 = getelementptr inbounds nuw %"struct.std::_Vector_base.1", ptr %5, i32 0, i32 0
  %7 = getelementptr inbounds nuw %"struct.std::_Vector_base<tmpi_comm_ *, std::allocator<tmpi_comm_ *>>::_Vector_impl_data", ptr %6, i32 0, i32 0
  %8 = load ptr, ptr %7, align 8, !tbaa !55
  %9 = load i64, ptr %4, align 8, !tbaa !42
  %10 = getelementptr inbounds nuw ptr, ptr %8, i64 %9
  ret ptr %10
}

; Function Attrs: mustprogress nounwind uwtable
define linkonce_odr void @_ZN3gmx8ArrayRefIdEC2IRS1_vEEOT_(ptr noundef nonnull align 8 dereferenceable(16) %0, ptr noundef nonnull align 8 dereferenceable(16) %1) unnamed_addr #1 comdat align 2 {
  %3 = alloca ptr, align 8
  %4 = alloca ptr, align 8
  store ptr %0, ptr %3, align 8, !tbaa !354
  store ptr %1, ptr %4, align 8, !tbaa !354
  %5 = load ptr, ptr %3, align 8
  %6 = getelementptr inbounds nuw %"class.gmx::ArrayRef.54", ptr %5, i32 0, i32 0
  %7 = load ptr, ptr %4, align 8, !tbaa !354
  %8 = call noundef ptr @_ZNK3gmx8ArrayRefIdE4dataEv(ptr noundef nonnull align 8 dereferenceable(16) %7)
  call void @_ZN3gmx12ArrayRefIterIdEC2EPd(ptr noundef nonnull align 8 dereferenceable(8) %6, ptr noundef %8) #18
  %9 = getelementptr inbounds nuw %"class.gmx::ArrayRef.54", ptr %5, i32 0, i32 1
  %10 = load ptr, ptr %4, align 8, !tbaa !354
  %11 = call noundef ptr @_ZNK3gmx8ArrayRefIdE4dataEv(ptr noundef nonnull align 8 dereferenceable(16) %10)
  %12 = load ptr, ptr %4, align 8, !tbaa !354
  %13 = call noundef i64 @_ZNK3gmx8ArrayRefIdE4sizeEv(ptr noundef nonnull align 8 dereferenceable(16) %12)
  %14 = getelementptr inbounds nuw double, ptr %11, i64 %13
  call void @_ZN3gmx12ArrayRefIterIdEC2EPd(ptr noundef nonnull align 8 dereferenceable(8) %9, ptr noundef %14) #18
  ret void
}

; Function Attrs: mustprogress uwtable
define void @_ZNK3gmx11BiasSharing25sumOverSharingSimulationsENS_8ArrayRefIdEEi(ptr noundef nonnull align 8 dereferenceable(104) %0, ptr %1, ptr %2, i32 noundef %3) #0 align 2 {
  %5 = alloca %"class.gmx::ArrayRef.54", align 8
  %6 = alloca ptr, align 8
  %7 = alloca i32, align 4
  %8 = alloca %"class.gmx::ArrayRef.54", align 8
  %9 = getelementptr inbounds nuw { ptr, ptr }, ptr %5, i32 0, i32 0
  store ptr %1, ptr %9, align 8
  %10 = getelementptr inbounds nuw { ptr, ptr }, ptr %5, i32 0, i32 1
  store ptr %2, ptr %10, align 8
  store ptr %0, ptr %6, align 8, !tbaa !4
  store i32 %3, ptr %7, align 4, !tbaa !35
  %11 = load ptr, ptr %6, align 8
  call void @_ZN3gmx8ArrayRefIdEC2IRS1_vEEOT_(ptr noundef nonnull align 8 dereferenceable(16) %8, ptr noundef nonnull align 8 dereferenceable(16) %5)
  %12 = getelementptr inbounds nuw %"class.gmx::BiasSharing", ptr %11, i32 0, i32 3
  %13 = load i32, ptr %7, align 4, !tbaa !35
  %14 = sext i32 %13 to i64
  %15 = call noundef nonnull align 8 dereferenceable(8) ptr @_ZNKSt6vectorIP10tmpi_comm_SaIS1_EEixEm(ptr noundef nonnull align 8 dereferenceable(24) %12, i64 noundef %14) #18
  %16 = load ptr, ptr %15, align 8, !tbaa !13
  %17 = getelementptr inbounds nuw %"class.gmx::BiasSharing", ptr %11, i32 0, i32 2
  %18 = load ptr, ptr %17, align 8, !tbaa !334
  %19 = getelementptr inbounds nuw { ptr, ptr }, ptr %8, i32 0, i32 0
  %20 = load ptr, ptr %19, align 8
  %21 = getelementptr inbounds nuw { ptr, ptr }, ptr %8, i32 0, i32 1
  %22 = load ptr, ptr %21, align 8
  call void @_ZN3gmx18sumOverSimulationsIdEEvNS_8ArrayRefIT_EEP10tmpi_comm_bRK9t_commrec(ptr %20, ptr %22, ptr noundef %16, i1 noundef zeroext true, ptr noundef nonnull align 8 dereferenceable(132) %18)
  ret void
}